
/home/george/Documents/work/RISCV/Toast-RV32i/Test/riscv-tests/rv32ui/lw.S.o:     file format elf32-littleriscv


Disassembly of section .text.init:

00000000 <_start-0x3c>:
   0:	00000013          	nop
   4:	00000013          	nop
   8:	00000013          	nop
   c:	00000013          	nop
  10:	00000013          	nop
  14:	00000013          	nop
  18:	00000013          	nop
  1c:	00000013          	nop
  20:	00000013          	nop
  24:	00000013          	nop
  28:	00000013          	nop
  2c:	00000013          	nop
  30:	00000013          	nop
  34:	00000013          	nop
  38:	00000013          	nop

0000003c <_start>:
  3c:	04c0006f          	j	88 <reset_vector>

00000040 <trap_vector>:
  40:	34202f73          	csrr	t5,mcause
  44:	00800f93          	li	t6,8
  48:	03ff0a63          	beq	t5,t6,7c <write_tohost>
  4c:	00900f93          	li	t6,9
  50:	03ff0663          	beq	t5,t6,7c <write_tohost>
  54:	00b00f93          	li	t6,11
  58:	03ff0263          	beq	t5,t6,7c <write_tohost>

0000005c <.L0 >:
  5c:	00000f17          	auipc	t5,0x0
  60:	000f0f13          	mv	t5,t5
  64:	000f0463          	beqz	t5,6c <.L11>
  68:	000f0067          	jr	t5 # 5c <.L0 >

0000006c <.L11>:
  6c:	34202f73          	csrr	t5,mcause
  70:	000f5463          	bgez	t5,78 <handle_exception>
  74:	0040006f          	j	78 <handle_exception>

00000078 <handle_exception>:
  78:	5391e193          	ori	gp,gp,1337

0000007c <write_tohost>:
  7c:	00000f17          	auipc	t5,0x0
  80:	003f2023          	sw	gp,0(t5) # 7c <write_tohost>
  84:	ff9ff06f          	j	7c <write_tohost>

00000088 <reset_vector>:
  88:	00000093          	li	ra,0
  8c:	00000113          	li	sp,0
  90:	00000193          	li	gp,0
  94:	00000213          	li	tp,0
  98:	00000293          	li	t0,0
  9c:	00000313          	li	t1,0
  a0:	00000393          	li	t2,0
  a4:	00000413          	li	s0,0
  a8:	00000493          	li	s1,0
  ac:	00000513          	li	a0,0
  b0:	00000593          	li	a1,0
  b4:	00000613          	li	a2,0
  b8:	00000693          	li	a3,0
  bc:	00000713          	li	a4,0
  c0:	00000793          	li	a5,0
  c4:	00000813          	li	a6,0
  c8:	00000893          	li	a7,0
  cc:	00000913          	li	s2,0
  d0:	00000993          	li	s3,0
  d4:	00000a13          	li	s4,0
  d8:	00000a93          	li	s5,0
  dc:	00000b13          	li	s6,0
  e0:	00000b93          	li	s7,0
  e4:	00000c13          	li	s8,0
  e8:	00000c93          	li	s9,0
  ec:	00000d13          	li	s10,0
  f0:	00000d93          	li	s11,0
  f4:	00000e13          	li	t3,0
  f8:	00000e93          	li	t4,0
  fc:	00000f13          	li	t5,0
 100:	00000f93          	li	t6,0
 104:	f1402573          	csrr	a0,mhartid

00000108 <.L13>:
 108:	00051063          	bnez	a0,108 <.L13>

0000010c <.L0 >:
 10c:	00000297          	auipc	t0,0x0
 110:	00028293          	mv	t0,t0
 114:	30529073          	csrw	mtvec,t0
 118:	18005073          	csrwi	satp,0

0000011c <.L0 >:
 11c:	00000297          	auipc	t0,0x0
 120:	00028293          	mv	t0,t0
 124:	30529073          	csrw	mtvec,t0
 128:	800002b7          	lui	t0,0x80000
 12c:	fff28293          	addi	t0,t0,-1 # 7fffffff <pass+0x7ffffb9f>
 130:	3b029073          	csrw	pmpaddr0,t0
 134:	01f00293          	li	t0,31
 138:	3a029073          	csrw	pmpcfg0,t0

0000013c <.L15>:
 13c:	30405073          	csrwi	mie,0

00000140 <.L0 >:
 140:	00000297          	auipc	t0,0x0
 144:	00028293          	mv	t0,t0
 148:	30529073          	csrw	mtvec,t0
 14c:	30205073          	csrwi	medeleg,0
 150:	30305073          	csrwi	mideleg,0

00000154 <.L16>:
 154:	00000193          	li	gp,0

00000158 <.L0 >:
 158:	00000297          	auipc	t0,0x0
 15c:	00028293          	mv	t0,t0
 160:	30529073          	csrw	mtvec,t0
 164:	00100513          	li	a0,1
 168:	01f51513          	slli	a0,a0,0x1f
 16c:	00054c63          	bltz	a0,184 <.L0 >
 170:	0ff0000f          	fence
 174:	00100193          	li	gp,1
 178:	05d00893          	li	a7,93
 17c:	00000513          	li	a0,0
 180:	00000073          	ecall

00000184 <.L0 >:
 184:	00000297          	auipc	t0,0x0
 188:	00028293          	mv	t0,t0
 18c:	00028a63          	beqz	t0,1a0 <.L18>
 190:	10529073          	csrw	stvec,t0
 194:	0000b2b7          	lui	t0,0xb
 198:	10928293          	addi	t0,t0,265 # b109 <pass+0xaca9>
 19c:	30229073          	csrw	medeleg,t0

000001a0 <.L18>:
 1a0:	30005073          	csrwi	mstatus,0

000001a4 <.L0 >:
 1a4:	00000297          	auipc	t0,0x0
 1a8:	00028293          	mv	t0,t0
 1ac:	34129073          	csrw	mepc,t0
 1b0:	f1402573          	csrr	a0,mhartid
 1b4:	30200073          	mret

000001b8 <test_2>:
 1b8:	00000097          	auipc	ra,0x0
 1bc:	00008093          	mv	ra,ra
 1c0:	0000a703          	lw	a4,0(ra) # 1b8 <test_2>
 1c4:	00ff03b7          	lui	t2,0xff0
 1c8:	0ff38393          	addi	t2,t2,255 # ff00ff <pass+0xfefc9f>
 1cc:	00200193          	li	gp,2
 1d0:	26771a63          	bne	a4,t2,444 <fail>

000001d4 <test_3>:
 1d4:	00000097          	auipc	ra,0x0
 1d8:	00008093          	mv	ra,ra
 1dc:	0040a703          	lw	a4,4(ra) # 1d8 <test_3+0x4>
 1e0:	ff0103b7          	lui	t2,0xff010
 1e4:	f0038393          	addi	t2,t2,-256 # ff00ff00 <pass+0xff00faa0>
 1e8:	00300193          	li	gp,3
 1ec:	24771c63          	bne	a4,t2,444 <fail>

000001f0 <test_4>:
 1f0:	00000097          	auipc	ra,0x0
 1f4:	00008093          	mv	ra,ra
 1f8:	0080a703          	lw	a4,8(ra) # 1f8 <test_4+0x8>
 1fc:	0ff013b7          	lui	t2,0xff01
 200:	ff038393          	addi	t2,t2,-16 # ff00ff0 <pass+0xff00b90>
 204:	00400193          	li	gp,4
 208:	22771e63          	bne	a4,t2,444 <fail>

0000020c <test_5>:
 20c:	00000097          	auipc	ra,0x0
 210:	00008093          	mv	ra,ra
 214:	00c0a703          	lw	a4,12(ra) # 218 <test_5+0xc>
 218:	f00ff3b7          	lui	t2,0xf00ff
 21c:	00f38393          	addi	t2,t2,15 # f00ff00f <pass+0xf00febaf>
 220:	00500193          	li	gp,5
 224:	22771063          	bne	a4,t2,444 <fail>

00000228 <test_6>:
 228:	00000097          	auipc	ra,0x0
 22c:	00008093          	mv	ra,ra
 230:	ff40a703          	lw	a4,-12(ra) # 21c <test_5+0x10>
 234:	00ff03b7          	lui	t2,0xff0
 238:	0ff38393          	addi	t2,t2,255 # ff00ff <pass+0xfefc9f>
 23c:	00600193          	li	gp,6
 240:	20771263          	bne	a4,t2,444 <fail>

00000244 <test_7>:
 244:	00000097          	auipc	ra,0x0
 248:	00008093          	mv	ra,ra
 24c:	ff80a703          	lw	a4,-8(ra) # 23c <test_6+0x14>
 250:	ff0103b7          	lui	t2,0xff010
 254:	f0038393          	addi	t2,t2,-256 # ff00ff00 <pass+0xff00faa0>
 258:	00700193          	li	gp,7
 25c:	1e771463          	bne	a4,t2,444 <fail>

00000260 <test_8>:
 260:	00000097          	auipc	ra,0x0
 264:	00008093          	mv	ra,ra
 268:	ffc0a703          	lw	a4,-4(ra) # 25c <test_7+0x18>
 26c:	0ff013b7          	lui	t2,0xff01
 270:	ff038393          	addi	t2,t2,-16 # ff00ff0 <pass+0xff00b90>
 274:	00800193          	li	gp,8
 278:	1c771663          	bne	a4,t2,444 <fail>

0000027c <test_9>:
 27c:	00000097          	auipc	ra,0x0
 280:	00008093          	mv	ra,ra
 284:	0000a703          	lw	a4,0(ra) # 27c <test_9>
 288:	f00ff3b7          	lui	t2,0xf00ff
 28c:	00f38393          	addi	t2,t2,15 # f00ff00f <pass+0xf00febaf>
 290:	00900193          	li	gp,9
 294:	1a771863          	bne	a4,t2,444 <fail>

00000298 <test_10>:
 298:	00000097          	auipc	ra,0x0
 29c:	00008093          	mv	ra,ra
 2a0:	fe008093          	addi	ra,ra,-32 # 278 <test_8+0x18>
 2a4:	0200a283          	lw	t0,32(ra)
 2a8:	00ff03b7          	lui	t2,0xff0
 2ac:	0ff38393          	addi	t2,t2,255 # ff00ff <pass+0xfefc9f>
 2b0:	00a00193          	li	gp,10
 2b4:	18729863          	bne	t0,t2,444 <fail>

000002b8 <test_11>:
 2b8:	00000097          	auipc	ra,0x0
 2bc:	00008093          	mv	ra,ra
 2c0:	ffd08093          	addi	ra,ra,-3 # 2b5 <test_10+0x1d>
 2c4:	0070a283          	lw	t0,7(ra)
 2c8:	ff0103b7          	lui	t2,0xff010
 2cc:	f0038393          	addi	t2,t2,-256 # ff00ff00 <pass+0xff00faa0>
 2d0:	00b00193          	li	gp,11
 2d4:	16729863          	bne	t0,t2,444 <fail>

000002d8 <test_12>:
 2d8:	00c00193          	li	gp,12
 2dc:	00000213          	li	tp,0

000002e0 <.L0 >:
 2e0:	00000097          	auipc	ra,0x0
 2e4:	00008093          	mv	ra,ra
 2e8:	0040a703          	lw	a4,4(ra) # 2e4 <.L0 +0x4>
 2ec:	00070313          	mv	t1,a4
 2f0:	0ff013b7          	lui	t2,0xff01
 2f4:	ff038393          	addi	t2,t2,-16 # ff00ff0 <pass+0xff00b90>
 2f8:	14731663          	bne	t1,t2,444 <fail>
 2fc:	00120213          	addi	tp,tp,1 # 1 <_start-0x3b>
 300:	00200293          	li	t0,2
 304:	fc521ee3          	bne	tp,t0,2e0 <.L0 >

00000308 <test_13>:
 308:	00d00193          	li	gp,13
 30c:	00000213          	li	tp,0

00000310 <.L0 >:
 310:	00000097          	auipc	ra,0x0
 314:	00008093          	mv	ra,ra
 318:	0040a703          	lw	a4,4(ra) # 314 <.L0 +0x4>
 31c:	00000013          	nop
 320:	00070313          	mv	t1,a4
 324:	f00ff3b7          	lui	t2,0xf00ff
 328:	00f38393          	addi	t2,t2,15 # f00ff00f <pass+0xf00febaf>
 32c:	10731c63          	bne	t1,t2,444 <fail>
 330:	00120213          	addi	tp,tp,1 # 1 <_start-0x3b>
 334:	00200293          	li	t0,2
 338:	fc521ce3          	bne	tp,t0,310 <.L0 >

0000033c <test_14>:
 33c:	00e00193          	li	gp,14
 340:	00000213          	li	tp,0

00000344 <.L0 >:
 344:	00000097          	auipc	ra,0x0
 348:	00008093          	mv	ra,ra
 34c:	0040a703          	lw	a4,4(ra) # 348 <.L0 +0x4>
 350:	00000013          	nop
 354:	00000013          	nop
 358:	00070313          	mv	t1,a4
 35c:	ff0103b7          	lui	t2,0xff010
 360:	f0038393          	addi	t2,t2,-256 # ff00ff00 <pass+0xff00faa0>
 364:	0e731063          	bne	t1,t2,444 <fail>
 368:	00120213          	addi	tp,tp,1 # 1 <_start-0x3b>
 36c:	00200293          	li	t0,2
 370:	fc521ae3          	bne	tp,t0,344 <.L0 >

00000374 <test_15>:
 374:	00f00193          	li	gp,15
 378:	00000213          	li	tp,0

0000037c <.L0 >:
 37c:	00000097          	auipc	ra,0x0
 380:	00008093          	mv	ra,ra
 384:	0040a703          	lw	a4,4(ra) # 380 <.L0 +0x4>
 388:	0ff013b7          	lui	t2,0xff01
 38c:	ff038393          	addi	t2,t2,-16 # ff00ff0 <pass+0xff00b90>
 390:	0a771a63          	bne	a4,t2,444 <fail>
 394:	00120213          	addi	tp,tp,1 # 1 <_start-0x3b>
 398:	00200293          	li	t0,2
 39c:	fe5210e3          	bne	tp,t0,37c <.L0 >

000003a0 <test_16>:
 3a0:	01000193          	li	gp,16
 3a4:	00000213          	li	tp,0

000003a8 <.L0 >:
 3a8:	00000097          	auipc	ra,0x0
 3ac:	00008093          	mv	ra,ra
 3b0:	00000013          	nop
 3b4:	0040a703          	lw	a4,4(ra) # 3ac <.L0 +0x4>
 3b8:	f00ff3b7          	lui	t2,0xf00ff
 3bc:	00f38393          	addi	t2,t2,15 # f00ff00f <pass+0xf00febaf>
 3c0:	08771263          	bne	a4,t2,444 <fail>
 3c4:	00120213          	addi	tp,tp,1 # 1 <_start-0x3b>
 3c8:	00200293          	li	t0,2
 3cc:	fc521ee3          	bne	tp,t0,3a8 <.L0 >

000003d0 <test_17>:
 3d0:	01100193          	li	gp,17
 3d4:	00000213          	li	tp,0

000003d8 <.L0 >:
 3d8:	00000097          	auipc	ra,0x0
 3dc:	00008093          	mv	ra,ra
 3e0:	00000013          	nop
 3e4:	00000013          	nop
 3e8:	0040a703          	lw	a4,4(ra) # 3dc <.L0 +0x4>
 3ec:	ff0103b7          	lui	t2,0xff010
 3f0:	f0038393          	addi	t2,t2,-256 # ff00ff00 <pass+0xff00faa0>
 3f4:	04771863          	bne	a4,t2,444 <fail>
 3f8:	00120213          	addi	tp,tp,1 # 1 <_start-0x3b>
 3fc:	00200293          	li	t0,2
 400:	fc521ce3          	bne	tp,t0,3d8 <.L0 >

00000404 <test_18>:
 404:	00000297          	auipc	t0,0x0
 408:	00028293          	mv	t0,t0
 40c:	0002a103          	lw	sp,0(t0) # 404 <test_18>
 410:	00200113          	li	sp,2
 414:	00200393          	li	t2,2
 418:	01200193          	li	gp,18
 41c:	02711463          	bne	sp,t2,444 <fail>

00000420 <test_19>:
 420:	00000297          	auipc	t0,0x0
 424:	00028293          	mv	t0,t0
 428:	0002a103          	lw	sp,0(t0) # 420 <test_19>
 42c:	00000013          	nop
 430:	00200113          	li	sp,2
 434:	00200393          	li	t2,2
 438:	01300193          	li	gp,19
 43c:	00711463          	bne	sp,t2,444 <fail>
 440:	02301063          	bne	zero,gp,460 <pass>

00000444 <fail>:
 444:	0ff0000f          	fence

00000448 <.L116>:
 448:	00018063          	beqz	gp,448 <.L116>
 44c:	00119193          	slli	gp,gp,0x1
 450:	0011e193          	ori	gp,gp,1
 454:	05d00893          	li	a7,93
 458:	00018513          	mv	a0,gp
 45c:	00000073          	ecall

00000460 <pass>:
 460:	0ff0000f          	fence
 464:	00100193          	li	gp,1
 468:	05d00893          	li	a7,93
 46c:	00000513          	li	a0,0
 470:	00000073          	ecall
 474:	c0001073          	unimp
	...
