
/home/george/Documents/work/RISCV/Toast-RV32i/Test/riscv-tests/rv32ui/sra.S.o:     file format elf32-littleriscv


Disassembly of section .text.init:

00000000 <_start-0x3c>:
   0:	00000013          	nop
   4:	00000013          	nop
   8:	00000013          	nop
   c:	00000013          	nop
  10:	00000013          	nop
  14:	00000013          	nop
  18:	00000013          	nop
  1c:	00000013          	nop
  20:	00000013          	nop
  24:	00000013          	nop
  28:	00000013          	nop
  2c:	00000013          	nop
  30:	00000013          	nop
  34:	00000013          	nop
  38:	00000013          	nop

0000003c <_start>:
  3c:	04c0006f          	j	88 <reset_vector>

00000040 <trap_vector>:
  40:	34202f73          	csrr	t5,mcause
  44:	00800f93          	li	t6,8
  48:	03ff0a63          	beq	t5,t6,7c <write_tohost>
  4c:	00900f93          	li	t6,9
  50:	03ff0663          	beq	t5,t6,7c <write_tohost>
  54:	00b00f93          	li	t6,11
  58:	03ff0263          	beq	t5,t6,7c <write_tohost>

0000005c <.L0 >:
  5c:	00000f17          	auipc	t5,0x0
  60:	000f0f13          	mv	t5,t5
  64:	000f0463          	beqz	t5,6c <.L11>
  68:	000f0067          	jr	t5 # 5c <.L0 >

0000006c <.L11>:
  6c:	34202f73          	csrr	t5,mcause
  70:	000f5463          	bgez	t5,78 <handle_exception>
  74:	0040006f          	j	78 <handle_exception>

00000078 <handle_exception>:
  78:	5391e193          	ori	gp,gp,1337

0000007c <write_tohost>:
  7c:	00000f17          	auipc	t5,0x0
  80:	003f2023          	sw	gp,0(t5) # 7c <write_tohost>
  84:	ff9ff06f          	j	7c <write_tohost>

00000088 <reset_vector>:
  88:	00000093          	li	ra,0
  8c:	00000113          	li	sp,0
  90:	00000193          	li	gp,0
  94:	00000213          	li	tp,0
  98:	00000293          	li	t0,0
  9c:	00000313          	li	t1,0
  a0:	00000393          	li	t2,0
  a4:	00000413          	li	s0,0
  a8:	00000493          	li	s1,0
  ac:	00000513          	li	a0,0
  b0:	00000593          	li	a1,0
  b4:	00000613          	li	a2,0
  b8:	00000693          	li	a3,0
  bc:	00000713          	li	a4,0
  c0:	00000793          	li	a5,0
  c4:	00000813          	li	a6,0
  c8:	00000893          	li	a7,0
  cc:	00000913          	li	s2,0
  d0:	00000993          	li	s3,0
  d4:	00000a13          	li	s4,0
  d8:	00000a93          	li	s5,0
  dc:	00000b13          	li	s6,0
  e0:	00000b93          	li	s7,0
  e4:	00000c13          	li	s8,0
  e8:	00000c93          	li	s9,0
  ec:	00000d13          	li	s10,0
  f0:	00000d93          	li	s11,0
  f4:	00000e13          	li	t3,0
  f8:	00000e93          	li	t4,0
  fc:	00000f13          	li	t5,0
 100:	00000f93          	li	t6,0
 104:	f1402573          	csrr	a0,mhartid

00000108 <.L13>:
 108:	00051063          	bnez	a0,108 <.L13>

0000010c <.L0 >:
 10c:	00000297          	auipc	t0,0x0
 110:	00028293          	mv	t0,t0
 114:	30529073          	csrw	mtvec,t0
 118:	18005073          	csrwi	satp,0

0000011c <.L0 >:
 11c:	00000297          	auipc	t0,0x0
 120:	00028293          	mv	t0,t0
 124:	30529073          	csrw	mtvec,t0
 128:	800002b7          	lui	t0,0x80000
 12c:	fff28293          	addi	t0,t0,-1 # 7fffffff <pass+0x7ffff88f>
 130:	3b029073          	csrw	pmpaddr0,t0
 134:	01f00293          	li	t0,31
 138:	3a029073          	csrw	pmpcfg0,t0

0000013c <.L15>:
 13c:	30405073          	csrwi	mie,0

00000140 <.L0 >:
 140:	00000297          	auipc	t0,0x0
 144:	00028293          	mv	t0,t0
 148:	30529073          	csrw	mtvec,t0
 14c:	30205073          	csrwi	medeleg,0
 150:	30305073          	csrwi	mideleg,0

00000154 <.L16>:
 154:	00000193          	li	gp,0

00000158 <.L0 >:
 158:	00000297          	auipc	t0,0x0
 15c:	00028293          	mv	t0,t0
 160:	30529073          	csrw	mtvec,t0
 164:	00100513          	li	a0,1
 168:	01f51513          	slli	a0,a0,0x1f
 16c:	00054c63          	bltz	a0,184 <.L0 >
 170:	0ff0000f          	fence
 174:	00100193          	li	gp,1
 178:	05d00893          	li	a7,93
 17c:	00000513          	li	a0,0
 180:	00000073          	ecall

00000184 <.L0 >:
 184:	00000297          	auipc	t0,0x0
 188:	00028293          	mv	t0,t0
 18c:	00028a63          	beqz	t0,1a0 <.L18>
 190:	10529073          	csrw	stvec,t0
 194:	0000b2b7          	lui	t0,0xb
 198:	10928293          	addi	t0,t0,265 # b109 <pass+0xa999>
 19c:	30229073          	csrw	medeleg,t0

000001a0 <.L18>:
 1a0:	30005073          	csrwi	mstatus,0

000001a4 <.L0 >:
 1a4:	00000297          	auipc	t0,0x0
 1a8:	00028293          	mv	t0,t0
 1ac:	34129073          	csrw	mepc,t0
 1b0:	f1402573          	csrr	a0,mhartid
 1b4:	30200073          	mret

000001b8 <test_2>:
 1b8:	800000b7          	lui	ra,0x80000
 1bc:	00000113          	li	sp,0
 1c0:	4020d733          	sra	a4,ra,sp
 1c4:	800003b7          	lui	t2,0x80000
 1c8:	00200193          	li	gp,2
 1cc:	58771463          	bne	a4,t2,754 <fail>

000001d0 <test_3>:
 1d0:	800000b7          	lui	ra,0x80000
 1d4:	00100113          	li	sp,1
 1d8:	4020d733          	sra	a4,ra,sp
 1dc:	c00003b7          	lui	t2,0xc0000
 1e0:	00300193          	li	gp,3
 1e4:	56771863          	bne	a4,t2,754 <fail>

000001e8 <test_4>:
 1e8:	800000b7          	lui	ra,0x80000
 1ec:	00700113          	li	sp,7
 1f0:	4020d733          	sra	a4,ra,sp
 1f4:	ff0003b7          	lui	t2,0xff000
 1f8:	00400193          	li	gp,4
 1fc:	54771c63          	bne	a4,t2,754 <fail>

00000200 <test_5>:
 200:	800000b7          	lui	ra,0x80000
 204:	00e00113          	li	sp,14
 208:	4020d733          	sra	a4,ra,sp
 20c:	fffe03b7          	lui	t2,0xfffe0
 210:	00500193          	li	gp,5
 214:	54771063          	bne	a4,t2,754 <fail>

00000218 <test_6>:
 218:	800000b7          	lui	ra,0x80000
 21c:	00108093          	addi	ra,ra,1 # 80000001 <pass+0x7ffff891>
 220:	01f00113          	li	sp,31
 224:	4020d733          	sra	a4,ra,sp
 228:	fff00393          	li	t2,-1
 22c:	00600193          	li	gp,6
 230:	52771263          	bne	a4,t2,754 <fail>

00000234 <test_7>:
 234:	800000b7          	lui	ra,0x80000
 238:	fff08093          	addi	ra,ra,-1 # 7fffffff <pass+0x7ffff88f>
 23c:	00000113          	li	sp,0
 240:	4020d733          	sra	a4,ra,sp
 244:	800003b7          	lui	t2,0x80000
 248:	fff38393          	addi	t2,t2,-1 # 7fffffff <pass+0x7ffff88f>
 24c:	00700193          	li	gp,7
 250:	50771263          	bne	a4,t2,754 <fail>

00000254 <test_8>:
 254:	800000b7          	lui	ra,0x80000
 258:	fff08093          	addi	ra,ra,-1 # 7fffffff <pass+0x7ffff88f>
 25c:	00100113          	li	sp,1
 260:	4020d733          	sra	a4,ra,sp
 264:	400003b7          	lui	t2,0x40000
 268:	fff38393          	addi	t2,t2,-1 # 3fffffff <pass+0x3ffff88f>
 26c:	00800193          	li	gp,8
 270:	4e771263          	bne	a4,t2,754 <fail>

00000274 <test_9>:
 274:	800000b7          	lui	ra,0x80000
 278:	fff08093          	addi	ra,ra,-1 # 7fffffff <pass+0x7ffff88f>
 27c:	00700113          	li	sp,7
 280:	4020d733          	sra	a4,ra,sp
 284:	010003b7          	lui	t2,0x1000
 288:	fff38393          	addi	t2,t2,-1 # ffffff <pass+0xfff88f>
 28c:	00900193          	li	gp,9
 290:	4c771263          	bne	a4,t2,754 <fail>

00000294 <test_10>:
 294:	800000b7          	lui	ra,0x80000
 298:	fff08093          	addi	ra,ra,-1 # 7fffffff <pass+0x7ffff88f>
 29c:	00e00113          	li	sp,14
 2a0:	4020d733          	sra	a4,ra,sp
 2a4:	000203b7          	lui	t2,0x20
 2a8:	fff38393          	addi	t2,t2,-1 # 1ffff <pass+0x1f88f>
 2ac:	00a00193          	li	gp,10
 2b0:	4a771263          	bne	a4,t2,754 <fail>

000002b4 <test_11>:
 2b4:	800000b7          	lui	ra,0x80000
 2b8:	fff08093          	addi	ra,ra,-1 # 7fffffff <pass+0x7ffff88f>
 2bc:	01f00113          	li	sp,31
 2c0:	4020d733          	sra	a4,ra,sp
 2c4:	00000393          	li	t2,0
 2c8:	00b00193          	li	gp,11
 2cc:	48771463          	bne	a4,t2,754 <fail>

000002d0 <test_12>:
 2d0:	818180b7          	lui	ra,0x81818
 2d4:	18108093          	addi	ra,ra,385 # 81818181 <pass+0x81817a11>
 2d8:	00000113          	li	sp,0
 2dc:	4020d733          	sra	a4,ra,sp
 2e0:	818183b7          	lui	t2,0x81818
 2e4:	18138393          	addi	t2,t2,385 # 81818181 <pass+0x81817a11>
 2e8:	00c00193          	li	gp,12
 2ec:	46771463          	bne	a4,t2,754 <fail>

000002f0 <test_13>:
 2f0:	818180b7          	lui	ra,0x81818
 2f4:	18108093          	addi	ra,ra,385 # 81818181 <pass+0x81817a11>
 2f8:	00100113          	li	sp,1
 2fc:	4020d733          	sra	a4,ra,sp
 300:	c0c0c3b7          	lui	t2,0xc0c0c
 304:	0c038393          	addi	t2,t2,192 # c0c0c0c0 <pass+0xc0c0b950>
 308:	00d00193          	li	gp,13
 30c:	44771463          	bne	a4,t2,754 <fail>

00000310 <test_14>:
 310:	818180b7          	lui	ra,0x81818
 314:	18108093          	addi	ra,ra,385 # 81818181 <pass+0x81817a11>
 318:	00700113          	li	sp,7
 31c:	4020d733          	sra	a4,ra,sp
 320:	ff0303b7          	lui	t2,0xff030
 324:	30338393          	addi	t2,t2,771 # ff030303 <pass+0xff02fb93>
 328:	00e00193          	li	gp,14
 32c:	42771463          	bne	a4,t2,754 <fail>

00000330 <test_15>:
 330:	818180b7          	lui	ra,0x81818
 334:	18108093          	addi	ra,ra,385 # 81818181 <pass+0x81817a11>
 338:	00e00113          	li	sp,14
 33c:	4020d733          	sra	a4,ra,sp
 340:	fffe03b7          	lui	t2,0xfffe0
 344:	60638393          	addi	t2,t2,1542 # fffe0606 <pass+0xfffdfe96>
 348:	00f00193          	li	gp,15
 34c:	40771463          	bne	a4,t2,754 <fail>

00000350 <test_16>:
 350:	818180b7          	lui	ra,0x81818
 354:	18108093          	addi	ra,ra,385 # 81818181 <pass+0x81817a11>
 358:	01f00113          	li	sp,31
 35c:	4020d733          	sra	a4,ra,sp
 360:	fff00393          	li	t2,-1
 364:	01000193          	li	gp,16
 368:	3e771663          	bne	a4,t2,754 <fail>

0000036c <test_17>:
 36c:	818180b7          	lui	ra,0x81818
 370:	18108093          	addi	ra,ra,385 # 81818181 <pass+0x81817a11>
 374:	fc000113          	li	sp,-64
 378:	4020d733          	sra	a4,ra,sp
 37c:	818183b7          	lui	t2,0x81818
 380:	18138393          	addi	t2,t2,385 # 81818181 <pass+0x81817a11>
 384:	01100193          	li	gp,17
 388:	3c771663          	bne	a4,t2,754 <fail>

0000038c <test_18>:
 38c:	818180b7          	lui	ra,0x81818
 390:	18108093          	addi	ra,ra,385 # 81818181 <pass+0x81817a11>
 394:	fc100113          	li	sp,-63
 398:	4020d733          	sra	a4,ra,sp
 39c:	c0c0c3b7          	lui	t2,0xc0c0c
 3a0:	0c038393          	addi	t2,t2,192 # c0c0c0c0 <pass+0xc0c0b950>
 3a4:	01200193          	li	gp,18
 3a8:	3a771663          	bne	a4,t2,754 <fail>

000003ac <test_19>:
 3ac:	818180b7          	lui	ra,0x81818
 3b0:	18108093          	addi	ra,ra,385 # 81818181 <pass+0x81817a11>
 3b4:	fc700113          	li	sp,-57
 3b8:	4020d733          	sra	a4,ra,sp
 3bc:	ff0303b7          	lui	t2,0xff030
 3c0:	30338393          	addi	t2,t2,771 # ff030303 <pass+0xff02fb93>
 3c4:	01300193          	li	gp,19
 3c8:	38771663          	bne	a4,t2,754 <fail>

000003cc <test_20>:
 3cc:	818180b7          	lui	ra,0x81818
 3d0:	18108093          	addi	ra,ra,385 # 81818181 <pass+0x81817a11>
 3d4:	fce00113          	li	sp,-50
 3d8:	4020d733          	sra	a4,ra,sp
 3dc:	fffe03b7          	lui	t2,0xfffe0
 3e0:	60638393          	addi	t2,t2,1542 # fffe0606 <pass+0xfffdfe96>
 3e4:	01400193          	li	gp,20
 3e8:	36771663          	bne	a4,t2,754 <fail>

000003ec <test_21>:
 3ec:	818180b7          	lui	ra,0x81818
 3f0:	18108093          	addi	ra,ra,385 # 81818181 <pass+0x81817a11>
 3f4:	fff00113          	li	sp,-1
 3f8:	4020d733          	sra	a4,ra,sp
 3fc:	fff00393          	li	t2,-1
 400:	01500193          	li	gp,21
 404:	34771863          	bne	a4,t2,754 <fail>

00000408 <test_22>:
 408:	800000b7          	lui	ra,0x80000
 40c:	00700113          	li	sp,7
 410:	4020d0b3          	sra	ra,ra,sp
 414:	ff0003b7          	lui	t2,0xff000
 418:	01600193          	li	gp,22
 41c:	32709c63          	bne	ra,t2,754 <fail>

00000420 <test_23>:
 420:	800000b7          	lui	ra,0x80000
 424:	00e00113          	li	sp,14
 428:	4020d133          	sra	sp,ra,sp
 42c:	fffe03b7          	lui	t2,0xfffe0
 430:	01700193          	li	gp,23
 434:	32711063          	bne	sp,t2,754 <fail>

00000438 <test_24>:
 438:	00700093          	li	ra,7
 43c:	4010d0b3          	sra	ra,ra,ra
 440:	00000393          	li	t2,0
 444:	01800193          	li	gp,24
 448:	30709663          	bne	ra,t2,754 <fail>

0000044c <test_25>:
 44c:	00000213          	li	tp,0

00000450 <.L110>:
 450:	800000b7          	lui	ra,0x80000
 454:	00700113          	li	sp,7
 458:	4020d733          	sra	a4,ra,sp
 45c:	00070313          	mv	t1,a4
 460:	00120213          	addi	tp,tp,1 # 1 <_start-0x3b>
 464:	00200293          	li	t0,2
 468:	fe5214e3          	bne	tp,t0,450 <.L110>
 46c:	ff0003b7          	lui	t2,0xff000
 470:	01900193          	li	gp,25
 474:	2e731063          	bne	t1,t2,754 <fail>

00000478 <test_26>:
 478:	00000213          	li	tp,0

0000047c <.L111>:
 47c:	800000b7          	lui	ra,0x80000
 480:	00e00113          	li	sp,14
 484:	4020d733          	sra	a4,ra,sp
 488:	00000013          	nop
 48c:	00070313          	mv	t1,a4
 490:	00120213          	addi	tp,tp,1 # 1 <_start-0x3b>
 494:	00200293          	li	t0,2
 498:	fe5212e3          	bne	tp,t0,47c <.L111>
 49c:	fffe03b7          	lui	t2,0xfffe0
 4a0:	01a00193          	li	gp,26
 4a4:	2a731863          	bne	t1,t2,754 <fail>

000004a8 <test_27>:
 4a8:	00000213          	li	tp,0

000004ac <.L112>:
 4ac:	800000b7          	lui	ra,0x80000
 4b0:	01f00113          	li	sp,31
 4b4:	4020d733          	sra	a4,ra,sp
 4b8:	00000013          	nop
 4bc:	00000013          	nop
 4c0:	00070313          	mv	t1,a4
 4c4:	00120213          	addi	tp,tp,1 # 1 <_start-0x3b>
 4c8:	00200293          	li	t0,2
 4cc:	fe5210e3          	bne	tp,t0,4ac <.L112>
 4d0:	fff00393          	li	t2,-1
 4d4:	01b00193          	li	gp,27
 4d8:	26731e63          	bne	t1,t2,754 <fail>

000004dc <test_28>:
 4dc:	00000213          	li	tp,0

000004e0 <.L113>:
 4e0:	800000b7          	lui	ra,0x80000
 4e4:	00700113          	li	sp,7
 4e8:	4020d733          	sra	a4,ra,sp
 4ec:	00120213          	addi	tp,tp,1 # 1 <_start-0x3b>
 4f0:	00200293          	li	t0,2
 4f4:	fe5216e3          	bne	tp,t0,4e0 <.L113>
 4f8:	ff0003b7          	lui	t2,0xff000
 4fc:	01c00193          	li	gp,28
 500:	24771a63          	bne	a4,t2,754 <fail>

00000504 <test_29>:
 504:	00000213          	li	tp,0

00000508 <.L114>:
 508:	800000b7          	lui	ra,0x80000
 50c:	00e00113          	li	sp,14
 510:	00000013          	nop
 514:	4020d733          	sra	a4,ra,sp
 518:	00120213          	addi	tp,tp,1 # 1 <_start-0x3b>
 51c:	00200293          	li	t0,2
 520:	fe5214e3          	bne	tp,t0,508 <.L114>
 524:	fffe03b7          	lui	t2,0xfffe0
 528:	01d00193          	li	gp,29
 52c:	22771463          	bne	a4,t2,754 <fail>

00000530 <test_30>:
 530:	00000213          	li	tp,0

00000534 <.L115>:
 534:	800000b7          	lui	ra,0x80000
 538:	01f00113          	li	sp,31
 53c:	00000013          	nop
 540:	00000013          	nop
 544:	4020d733          	sra	a4,ra,sp
 548:	00120213          	addi	tp,tp,1 # 1 <_start-0x3b>
 54c:	00200293          	li	t0,2
 550:	fe5212e3          	bne	tp,t0,534 <.L115>
 554:	fff00393          	li	t2,-1
 558:	01e00193          	li	gp,30
 55c:	1e771c63          	bne	a4,t2,754 <fail>

00000560 <test_31>:
 560:	00000213          	li	tp,0

00000564 <.L116>:
 564:	800000b7          	lui	ra,0x80000
 568:	00000013          	nop
 56c:	00700113          	li	sp,7
 570:	4020d733          	sra	a4,ra,sp
 574:	00120213          	addi	tp,tp,1 # 1 <_start-0x3b>
 578:	00200293          	li	t0,2
 57c:	fe5214e3          	bne	tp,t0,564 <.L116>
 580:	ff0003b7          	lui	t2,0xff000
 584:	01f00193          	li	gp,31
 588:	1c771663          	bne	a4,t2,754 <fail>

0000058c <test_32>:
 58c:	00000213          	li	tp,0

00000590 <.L117>:
 590:	800000b7          	lui	ra,0x80000
 594:	00000013          	nop
 598:	00e00113          	li	sp,14
 59c:	00000013          	nop
 5a0:	4020d733          	sra	a4,ra,sp
 5a4:	00120213          	addi	tp,tp,1 # 1 <_start-0x3b>
 5a8:	00200293          	li	t0,2
 5ac:	fe5212e3          	bne	tp,t0,590 <.L117>
 5b0:	fffe03b7          	lui	t2,0xfffe0
 5b4:	02000193          	li	gp,32
 5b8:	18771e63          	bne	a4,t2,754 <fail>

000005bc <test_33>:
 5bc:	00000213          	li	tp,0

000005c0 <.L118>:
 5c0:	800000b7          	lui	ra,0x80000
 5c4:	00000013          	nop
 5c8:	00000013          	nop
 5cc:	01f00113          	li	sp,31
 5d0:	4020d733          	sra	a4,ra,sp
 5d4:	00120213          	addi	tp,tp,1 # 1 <_start-0x3b>
 5d8:	00200293          	li	t0,2
 5dc:	fe5212e3          	bne	tp,t0,5c0 <.L118>
 5e0:	fff00393          	li	t2,-1
 5e4:	02100193          	li	gp,33
 5e8:	16771663          	bne	a4,t2,754 <fail>

000005ec <test_34>:
 5ec:	00000213          	li	tp,0

000005f0 <.L119>:
 5f0:	00700113          	li	sp,7
 5f4:	800000b7          	lui	ra,0x80000
 5f8:	4020d733          	sra	a4,ra,sp
 5fc:	00120213          	addi	tp,tp,1 # 1 <_start-0x3b>
 600:	00200293          	li	t0,2
 604:	fe5216e3          	bne	tp,t0,5f0 <.L119>
 608:	ff0003b7          	lui	t2,0xff000
 60c:	02200193          	li	gp,34
 610:	14771263          	bne	a4,t2,754 <fail>

00000614 <test_35>:
 614:	00000213          	li	tp,0

00000618 <.L120>:
 618:	00e00113          	li	sp,14
 61c:	800000b7          	lui	ra,0x80000
 620:	00000013          	nop
 624:	4020d733          	sra	a4,ra,sp
 628:	00120213          	addi	tp,tp,1 # 1 <_start-0x3b>
 62c:	00200293          	li	t0,2
 630:	fe5214e3          	bne	tp,t0,618 <.L120>
 634:	fffe03b7          	lui	t2,0xfffe0
 638:	02300193          	li	gp,35
 63c:	10771c63          	bne	a4,t2,754 <fail>

00000640 <test_36>:
 640:	00000213          	li	tp,0

00000644 <.L121>:
 644:	01f00113          	li	sp,31
 648:	800000b7          	lui	ra,0x80000
 64c:	00000013          	nop
 650:	00000013          	nop
 654:	4020d733          	sra	a4,ra,sp
 658:	00120213          	addi	tp,tp,1 # 1 <_start-0x3b>
 65c:	00200293          	li	t0,2
 660:	fe5212e3          	bne	tp,t0,644 <.L121>
 664:	fff00393          	li	t2,-1
 668:	02400193          	li	gp,36
 66c:	0e771463          	bne	a4,t2,754 <fail>

00000670 <test_37>:
 670:	00000213          	li	tp,0

00000674 <.L122>:
 674:	00700113          	li	sp,7
 678:	00000013          	nop
 67c:	800000b7          	lui	ra,0x80000
 680:	4020d733          	sra	a4,ra,sp
 684:	00120213          	addi	tp,tp,1 # 1 <_start-0x3b>
 688:	00200293          	li	t0,2
 68c:	fe5214e3          	bne	tp,t0,674 <.L122>
 690:	ff0003b7          	lui	t2,0xff000
 694:	02500193          	li	gp,37
 698:	0a771e63          	bne	a4,t2,754 <fail>

0000069c <test_38>:
 69c:	00000213          	li	tp,0

000006a0 <.L123>:
 6a0:	00e00113          	li	sp,14
 6a4:	00000013          	nop
 6a8:	800000b7          	lui	ra,0x80000
 6ac:	00000013          	nop
 6b0:	4020d733          	sra	a4,ra,sp
 6b4:	00120213          	addi	tp,tp,1 # 1 <_start-0x3b>
 6b8:	00200293          	li	t0,2
 6bc:	fe5212e3          	bne	tp,t0,6a0 <.L123>
 6c0:	fffe03b7          	lui	t2,0xfffe0
 6c4:	02600193          	li	gp,38
 6c8:	08771663          	bne	a4,t2,754 <fail>

000006cc <test_39>:
 6cc:	00000213          	li	tp,0

000006d0 <.L124>:
 6d0:	01f00113          	li	sp,31
 6d4:	00000013          	nop
 6d8:	00000013          	nop
 6dc:	800000b7          	lui	ra,0x80000
 6e0:	4020d733          	sra	a4,ra,sp
 6e4:	00120213          	addi	tp,tp,1 # 1 <_start-0x3b>
 6e8:	00200293          	li	t0,2
 6ec:	fe5212e3          	bne	tp,t0,6d0 <.L124>
 6f0:	fff00393          	li	t2,-1
 6f4:	02700193          	li	gp,39
 6f8:	04771e63          	bne	a4,t2,754 <fail>

000006fc <test_40>:
 6fc:	00f00093          	li	ra,15
 700:	40105133          	sra	sp,zero,ra
 704:	00000393          	li	t2,0
 708:	02800193          	li	gp,40
 70c:	04711463          	bne	sp,t2,754 <fail>

00000710 <test_41>:
 710:	02000093          	li	ra,32
 714:	4000d133          	sra	sp,ra,zero
 718:	02000393          	li	t2,32
 71c:	02900193          	li	gp,41
 720:	02711a63          	bne	sp,t2,754 <fail>

00000724 <test_42>:
 724:	400050b3          	sra	ra,zero,zero
 728:	00000393          	li	t2,0
 72c:	02a00193          	li	gp,42
 730:	02709263          	bne	ra,t2,754 <fail>

00000734 <test_43>:
 734:	40000093          	li	ra,1024
 738:	00001137          	lui	sp,0x1
 73c:	80010113          	addi	sp,sp,-2048 # 800 <pass+0x90>
 740:	4020d033          	sra	zero,ra,sp
 744:	00000393          	li	t2,0
 748:	02b00193          	li	gp,43
 74c:	00701463          	bne	zero,t2,754 <fail>
 750:	02301063          	bne	zero,gp,770 <pass>

00000754 <fail>:
 754:	0ff0000f          	fence

00000758 <.L125>:
 758:	00018063          	beqz	gp,758 <.L125>
 75c:	00119193          	slli	gp,gp,0x1
 760:	0011e193          	ori	gp,gp,1
 764:	05d00893          	li	a7,93
 768:	00018513          	mv	a0,gp
 76c:	00000073          	ecall

00000770 <pass>:
 770:	0ff0000f          	fence
 774:	00100193          	li	gp,1
 778:	05d00893          	li	a7,93
 77c:	00000513          	li	a0,0
 780:	00000073          	ecall
 784:	c0001073          	unimp
	...
