
/home/george/Documents/work/RISCV/Toast-RV32i/Test/riscv-tests/rv32ui/sub.S.o:     file format elf32-littleriscv


Disassembly of section .text.init:

00000000 <_start-0x3c>:
   0:	00000013          	nop
   4:	00000013          	nop
   8:	00000013          	nop
   c:	00000013          	nop
  10:	00000013          	nop
  14:	00000013          	nop
  18:	00000013          	nop
  1c:	00000013          	nop
  20:	00000013          	nop
  24:	00000013          	nop
  28:	00000013          	nop
  2c:	00000013          	nop
  30:	00000013          	nop
  34:	00000013          	nop
  38:	00000013          	nop

0000003c <_start>:
  3c:	04c0006f          	j	88 <reset_vector>

00000040 <trap_vector>:
  40:	34202f73          	csrr	t5,mcause
  44:	00800f93          	li	t6,8
  48:	03ff0a63          	beq	t5,t6,7c <write_tohost>
  4c:	00900f93          	li	t6,9
  50:	03ff0663          	beq	t5,t6,7c <write_tohost>
  54:	00b00f93          	li	t6,11
  58:	03ff0263          	beq	t5,t6,7c <write_tohost>

0000005c <.L0 >:
  5c:	00000f17          	auipc	t5,0x0
  60:	000f0f13          	mv	t5,t5
  64:	000f0463          	beqz	t5,6c <.L11>
  68:	000f0067          	jr	t5 # 5c <.L0 >

0000006c <.L11>:
  6c:	34202f73          	csrr	t5,mcause
  70:	000f5463          	bgez	t5,78 <handle_exception>
  74:	0040006f          	j	78 <handle_exception>

00000078 <handle_exception>:
  78:	5391e193          	ori	gp,gp,1337

0000007c <write_tohost>:
  7c:	00000f17          	auipc	t5,0x0
  80:	003f2023          	sw	gp,0(t5) # 7c <write_tohost>
  84:	ff9ff06f          	j	7c <write_tohost>

00000088 <reset_vector>:
  88:	00000093          	li	ra,0
  8c:	00000113          	li	sp,0
  90:	00000193          	li	gp,0
  94:	00000213          	li	tp,0
  98:	00000293          	li	t0,0
  9c:	00000313          	li	t1,0
  a0:	00000393          	li	t2,0
  a4:	00000413          	li	s0,0
  a8:	00000493          	li	s1,0
  ac:	00000513          	li	a0,0
  b0:	00000593          	li	a1,0
  b4:	00000613          	li	a2,0
  b8:	00000693          	li	a3,0
  bc:	00000713          	li	a4,0
  c0:	00000793          	li	a5,0
  c4:	00000813          	li	a6,0
  c8:	00000893          	li	a7,0
  cc:	00000913          	li	s2,0
  d0:	00000993          	li	s3,0
  d4:	00000a13          	li	s4,0
  d8:	00000a93          	li	s5,0
  dc:	00000b13          	li	s6,0
  e0:	00000b93          	li	s7,0
  e4:	00000c13          	li	s8,0
  e8:	00000c93          	li	s9,0
  ec:	00000d13          	li	s10,0
  f0:	00000d93          	li	s11,0
  f4:	00000e13          	li	t3,0
  f8:	00000e93          	li	t4,0
  fc:	00000f13          	li	t5,0
 100:	00000f93          	li	t6,0
 104:	f1402573          	csrr	a0,mhartid

00000108 <.L13>:
 108:	00051063          	bnez	a0,108 <.L13>

0000010c <.L0 >:
 10c:	00000297          	auipc	t0,0x0
 110:	00028293          	mv	t0,t0
 114:	30529073          	csrw	mtvec,t0
 118:	18005073          	csrwi	satp,0

0000011c <.L0 >:
 11c:	00000297          	auipc	t0,0x0
 120:	00028293          	mv	t0,t0
 124:	30529073          	csrw	mtvec,t0
 128:	800002b7          	lui	t0,0x80000
 12c:	fff28293          	addi	t0,t0,-1 # 7fffffff <pass+0x7ffff96b>
 130:	3b029073          	csrw	pmpaddr0,t0
 134:	01f00293          	li	t0,31
 138:	3a029073          	csrw	pmpcfg0,t0

0000013c <.L15>:
 13c:	30405073          	csrwi	mie,0

00000140 <.L0 >:
 140:	00000297          	auipc	t0,0x0
 144:	00028293          	mv	t0,t0
 148:	30529073          	csrw	mtvec,t0
 14c:	30205073          	csrwi	medeleg,0
 150:	30305073          	csrwi	mideleg,0

00000154 <.L16>:
 154:	00000193          	li	gp,0

00000158 <.L0 >:
 158:	00000297          	auipc	t0,0x0
 15c:	00028293          	mv	t0,t0
 160:	30529073          	csrw	mtvec,t0
 164:	00100513          	li	a0,1
 168:	01f51513          	slli	a0,a0,0x1f
 16c:	00054c63          	bltz	a0,184 <.L0 >
 170:	0ff0000f          	fence
 174:	00100193          	li	gp,1
 178:	05d00893          	li	a7,93
 17c:	00000513          	li	a0,0
 180:	00000073          	ecall

00000184 <.L0 >:
 184:	00000297          	auipc	t0,0x0
 188:	00028293          	mv	t0,t0
 18c:	00028a63          	beqz	t0,1a0 <.L18>
 190:	10529073          	csrw	stvec,t0
 194:	0000b2b7          	lui	t0,0xb
 198:	10928293          	addi	t0,t0,265 # b109 <pass+0xaa75>
 19c:	30229073          	csrw	medeleg,t0

000001a0 <.L18>:
 1a0:	30005073          	csrwi	mstatus,0

000001a4 <.L0 >:
 1a4:	00000297          	auipc	t0,0x0
 1a8:	00028293          	mv	t0,t0
 1ac:	34129073          	csrw	mepc,t0
 1b0:	f1402573          	csrr	a0,mhartid
 1b4:	30200073          	mret

000001b8 <test_2>:
 1b8:	00000093          	li	ra,0
 1bc:	00000113          	li	sp,0
 1c0:	40208733          	sub	a4,ra,sp
 1c4:	00000393          	li	t2,0
 1c8:	00200193          	li	gp,2
 1cc:	4a771663          	bne	a4,t2,678 <fail>

000001d0 <test_3>:
 1d0:	00100093          	li	ra,1
 1d4:	00100113          	li	sp,1
 1d8:	40208733          	sub	a4,ra,sp
 1dc:	00000393          	li	t2,0
 1e0:	00300193          	li	gp,3
 1e4:	48771a63          	bne	a4,t2,678 <fail>

000001e8 <test_4>:
 1e8:	00300093          	li	ra,3
 1ec:	00700113          	li	sp,7
 1f0:	40208733          	sub	a4,ra,sp
 1f4:	ffc00393          	li	t2,-4
 1f8:	00400193          	li	gp,4
 1fc:	46771e63          	bne	a4,t2,678 <fail>

00000200 <test_5>:
 200:	00000093          	li	ra,0
 204:	ffff8137          	lui	sp,0xffff8
 208:	40208733          	sub	a4,ra,sp
 20c:	000083b7          	lui	t2,0x8
 210:	00500193          	li	gp,5
 214:	46771263          	bne	a4,t2,678 <fail>

00000218 <test_6>:
 218:	800000b7          	lui	ra,0x80000
 21c:	00000113          	li	sp,0
 220:	40208733          	sub	a4,ra,sp
 224:	800003b7          	lui	t2,0x80000
 228:	00600193          	li	gp,6
 22c:	44771663          	bne	a4,t2,678 <fail>

00000230 <test_7>:
 230:	800000b7          	lui	ra,0x80000
 234:	ffff8137          	lui	sp,0xffff8
 238:	40208733          	sub	a4,ra,sp
 23c:	800083b7          	lui	t2,0x80008
 240:	00700193          	li	gp,7
 244:	42771a63          	bne	a4,t2,678 <fail>

00000248 <test_8>:
 248:	00000093          	li	ra,0
 24c:	00008137          	lui	sp,0x8
 250:	fff10113          	addi	sp,sp,-1 # 7fff <pass+0x796b>
 254:	40208733          	sub	a4,ra,sp
 258:	ffff83b7          	lui	t2,0xffff8
 25c:	00138393          	addi	t2,t2,1 # ffff8001 <pass+0xffff796d>
 260:	00800193          	li	gp,8
 264:	40771a63          	bne	a4,t2,678 <fail>

00000268 <test_9>:
 268:	800000b7          	lui	ra,0x80000
 26c:	fff08093          	addi	ra,ra,-1 # 7fffffff <pass+0x7ffff96b>
 270:	00000113          	li	sp,0
 274:	40208733          	sub	a4,ra,sp
 278:	800003b7          	lui	t2,0x80000
 27c:	fff38393          	addi	t2,t2,-1 # 7fffffff <pass+0x7ffff96b>
 280:	00900193          	li	gp,9
 284:	3e771a63          	bne	a4,t2,678 <fail>

00000288 <test_10>:
 288:	800000b7          	lui	ra,0x80000
 28c:	fff08093          	addi	ra,ra,-1 # 7fffffff <pass+0x7ffff96b>
 290:	00008137          	lui	sp,0x8
 294:	fff10113          	addi	sp,sp,-1 # 7fff <pass+0x796b>
 298:	40208733          	sub	a4,ra,sp
 29c:	7fff83b7          	lui	t2,0x7fff8
 2a0:	00a00193          	li	gp,10
 2a4:	3c771a63          	bne	a4,t2,678 <fail>

000002a8 <test_11>:
 2a8:	800000b7          	lui	ra,0x80000
 2ac:	00008137          	lui	sp,0x8
 2b0:	fff10113          	addi	sp,sp,-1 # 7fff <pass+0x796b>
 2b4:	40208733          	sub	a4,ra,sp
 2b8:	7fff83b7          	lui	t2,0x7fff8
 2bc:	00138393          	addi	t2,t2,1 # 7fff8001 <pass+0x7fff796d>
 2c0:	00b00193          	li	gp,11
 2c4:	3a771a63          	bne	a4,t2,678 <fail>

000002c8 <test_12>:
 2c8:	800000b7          	lui	ra,0x80000
 2cc:	fff08093          	addi	ra,ra,-1 # 7fffffff <pass+0x7ffff96b>
 2d0:	ffff8137          	lui	sp,0xffff8
 2d4:	40208733          	sub	a4,ra,sp
 2d8:	800083b7          	lui	t2,0x80008
 2dc:	fff38393          	addi	t2,t2,-1 # 80007fff <pass+0x8000796b>
 2e0:	00c00193          	li	gp,12
 2e4:	38771a63          	bne	a4,t2,678 <fail>

000002e8 <test_13>:
 2e8:	00000093          	li	ra,0
 2ec:	fff00113          	li	sp,-1
 2f0:	40208733          	sub	a4,ra,sp
 2f4:	00100393          	li	t2,1
 2f8:	00d00193          	li	gp,13
 2fc:	36771e63          	bne	a4,t2,678 <fail>

00000300 <test_14>:
 300:	fff00093          	li	ra,-1
 304:	00100113          	li	sp,1
 308:	40208733          	sub	a4,ra,sp
 30c:	ffe00393          	li	t2,-2
 310:	00e00193          	li	gp,14
 314:	36771263          	bne	a4,t2,678 <fail>

00000318 <test_15>:
 318:	fff00093          	li	ra,-1
 31c:	fff00113          	li	sp,-1
 320:	40208733          	sub	a4,ra,sp
 324:	00000393          	li	t2,0
 328:	00f00193          	li	gp,15
 32c:	34771663          	bne	a4,t2,678 <fail>

00000330 <test_16>:
 330:	00d00093          	li	ra,13
 334:	00b00113          	li	sp,11
 338:	402080b3          	sub	ra,ra,sp
 33c:	00200393          	li	t2,2
 340:	01000193          	li	gp,16
 344:	32709a63          	bne	ra,t2,678 <fail>

00000348 <test_17>:
 348:	00e00093          	li	ra,14
 34c:	00b00113          	li	sp,11
 350:	40208133          	sub	sp,ra,sp
 354:	00300393          	li	t2,3
 358:	01100193          	li	gp,17
 35c:	30711e63          	bne	sp,t2,678 <fail>

00000360 <test_18>:
 360:	00d00093          	li	ra,13
 364:	401080b3          	sub	ra,ra,ra
 368:	00000393          	li	t2,0
 36c:	01200193          	li	gp,18
 370:	30709463          	bne	ra,t2,678 <fail>

00000374 <test_19>:
 374:	00000213          	li	tp,0

00000378 <.L110>:
 378:	00d00093          	li	ra,13
 37c:	00b00113          	li	sp,11
 380:	40208733          	sub	a4,ra,sp
 384:	00070313          	mv	t1,a4
 388:	00120213          	addi	tp,tp,1 # 1 <_start-0x3b>
 38c:	00200293          	li	t0,2
 390:	fe5214e3          	bne	tp,t0,378 <.L110>
 394:	00200393          	li	t2,2
 398:	01300193          	li	gp,19
 39c:	2c731e63          	bne	t1,t2,678 <fail>

000003a0 <test_20>:
 3a0:	00000213          	li	tp,0

000003a4 <.L111>:
 3a4:	00e00093          	li	ra,14
 3a8:	00b00113          	li	sp,11
 3ac:	40208733          	sub	a4,ra,sp
 3b0:	00000013          	nop
 3b4:	00070313          	mv	t1,a4
 3b8:	00120213          	addi	tp,tp,1 # 1 <_start-0x3b>
 3bc:	00200293          	li	t0,2
 3c0:	fe5212e3          	bne	tp,t0,3a4 <.L111>
 3c4:	00300393          	li	t2,3
 3c8:	01400193          	li	gp,20
 3cc:	2a731663          	bne	t1,t2,678 <fail>

000003d0 <test_21>:
 3d0:	00000213          	li	tp,0

000003d4 <.L112>:
 3d4:	00f00093          	li	ra,15
 3d8:	00b00113          	li	sp,11
 3dc:	40208733          	sub	a4,ra,sp
 3e0:	00000013          	nop
 3e4:	00000013          	nop
 3e8:	00070313          	mv	t1,a4
 3ec:	00120213          	addi	tp,tp,1 # 1 <_start-0x3b>
 3f0:	00200293          	li	t0,2
 3f4:	fe5210e3          	bne	tp,t0,3d4 <.L112>
 3f8:	00400393          	li	t2,4
 3fc:	01500193          	li	gp,21
 400:	26731c63          	bne	t1,t2,678 <fail>

00000404 <test_22>:
 404:	00000213          	li	tp,0

00000408 <.L113>:
 408:	00d00093          	li	ra,13
 40c:	00b00113          	li	sp,11
 410:	40208733          	sub	a4,ra,sp
 414:	00120213          	addi	tp,tp,1 # 1 <_start-0x3b>
 418:	00200293          	li	t0,2
 41c:	fe5216e3          	bne	tp,t0,408 <.L113>
 420:	00200393          	li	t2,2
 424:	01600193          	li	gp,22
 428:	24771863          	bne	a4,t2,678 <fail>

0000042c <test_23>:
 42c:	00000213          	li	tp,0

00000430 <.L114>:
 430:	00e00093          	li	ra,14
 434:	00b00113          	li	sp,11
 438:	00000013          	nop
 43c:	40208733          	sub	a4,ra,sp
 440:	00120213          	addi	tp,tp,1 # 1 <_start-0x3b>
 444:	00200293          	li	t0,2
 448:	fe5214e3          	bne	tp,t0,430 <.L114>
 44c:	00300393          	li	t2,3
 450:	01700193          	li	gp,23
 454:	22771263          	bne	a4,t2,678 <fail>

00000458 <test_24>:
 458:	00000213          	li	tp,0

0000045c <.L115>:
 45c:	00f00093          	li	ra,15
 460:	00b00113          	li	sp,11
 464:	00000013          	nop
 468:	00000013          	nop
 46c:	40208733          	sub	a4,ra,sp
 470:	00120213          	addi	tp,tp,1 # 1 <_start-0x3b>
 474:	00200293          	li	t0,2
 478:	fe5212e3          	bne	tp,t0,45c <.L115>
 47c:	00400393          	li	t2,4
 480:	01800193          	li	gp,24
 484:	1e771a63          	bne	a4,t2,678 <fail>

00000488 <test_25>:
 488:	00000213          	li	tp,0

0000048c <.L116>:
 48c:	00d00093          	li	ra,13
 490:	00000013          	nop
 494:	00b00113          	li	sp,11
 498:	40208733          	sub	a4,ra,sp
 49c:	00120213          	addi	tp,tp,1 # 1 <_start-0x3b>
 4a0:	00200293          	li	t0,2
 4a4:	fe5214e3          	bne	tp,t0,48c <.L116>
 4a8:	00200393          	li	t2,2
 4ac:	01900193          	li	gp,25
 4b0:	1c771463          	bne	a4,t2,678 <fail>

000004b4 <test_26>:
 4b4:	00000213          	li	tp,0

000004b8 <.L117>:
 4b8:	00e00093          	li	ra,14
 4bc:	00000013          	nop
 4c0:	00b00113          	li	sp,11
 4c4:	00000013          	nop
 4c8:	40208733          	sub	a4,ra,sp
 4cc:	00120213          	addi	tp,tp,1 # 1 <_start-0x3b>
 4d0:	00200293          	li	t0,2
 4d4:	fe5212e3          	bne	tp,t0,4b8 <.L117>
 4d8:	00300393          	li	t2,3
 4dc:	01a00193          	li	gp,26
 4e0:	18771c63          	bne	a4,t2,678 <fail>

000004e4 <test_27>:
 4e4:	00000213          	li	tp,0

000004e8 <.L118>:
 4e8:	00f00093          	li	ra,15
 4ec:	00000013          	nop
 4f0:	00000013          	nop
 4f4:	00b00113          	li	sp,11
 4f8:	40208733          	sub	a4,ra,sp
 4fc:	00120213          	addi	tp,tp,1 # 1 <_start-0x3b>
 500:	00200293          	li	t0,2
 504:	fe5212e3          	bne	tp,t0,4e8 <.L118>
 508:	00400393          	li	t2,4
 50c:	01b00193          	li	gp,27
 510:	16771463          	bne	a4,t2,678 <fail>

00000514 <test_28>:
 514:	00000213          	li	tp,0

00000518 <.L119>:
 518:	00b00113          	li	sp,11
 51c:	00d00093          	li	ra,13
 520:	40208733          	sub	a4,ra,sp
 524:	00120213          	addi	tp,tp,1 # 1 <_start-0x3b>
 528:	00200293          	li	t0,2
 52c:	fe5216e3          	bne	tp,t0,518 <.L119>
 530:	00200393          	li	t2,2
 534:	01c00193          	li	gp,28
 538:	14771063          	bne	a4,t2,678 <fail>

0000053c <test_29>:
 53c:	00000213          	li	tp,0

00000540 <.L120>:
 540:	00b00113          	li	sp,11
 544:	00e00093          	li	ra,14
 548:	00000013          	nop
 54c:	40208733          	sub	a4,ra,sp
 550:	00120213          	addi	tp,tp,1 # 1 <_start-0x3b>
 554:	00200293          	li	t0,2
 558:	fe5214e3          	bne	tp,t0,540 <.L120>
 55c:	00300393          	li	t2,3
 560:	01d00193          	li	gp,29
 564:	10771a63          	bne	a4,t2,678 <fail>

00000568 <test_30>:
 568:	00000213          	li	tp,0

0000056c <.L121>:
 56c:	00b00113          	li	sp,11
 570:	00f00093          	li	ra,15
 574:	00000013          	nop
 578:	00000013          	nop
 57c:	40208733          	sub	a4,ra,sp
 580:	00120213          	addi	tp,tp,1 # 1 <_start-0x3b>
 584:	00200293          	li	t0,2
 588:	fe5212e3          	bne	tp,t0,56c <.L121>
 58c:	00400393          	li	t2,4
 590:	01e00193          	li	gp,30
 594:	0e771263          	bne	a4,t2,678 <fail>

00000598 <test_31>:
 598:	00000213          	li	tp,0

0000059c <.L122>:
 59c:	00b00113          	li	sp,11
 5a0:	00000013          	nop
 5a4:	00d00093          	li	ra,13
 5a8:	40208733          	sub	a4,ra,sp
 5ac:	00120213          	addi	tp,tp,1 # 1 <_start-0x3b>
 5b0:	00200293          	li	t0,2
 5b4:	fe5214e3          	bne	tp,t0,59c <.L122>
 5b8:	00200393          	li	t2,2
 5bc:	01f00193          	li	gp,31
 5c0:	0a771c63          	bne	a4,t2,678 <fail>

000005c4 <test_32>:
 5c4:	00000213          	li	tp,0

000005c8 <.L123>:
 5c8:	00b00113          	li	sp,11
 5cc:	00000013          	nop
 5d0:	00e00093          	li	ra,14
 5d4:	00000013          	nop
 5d8:	40208733          	sub	a4,ra,sp
 5dc:	00120213          	addi	tp,tp,1 # 1 <_start-0x3b>
 5e0:	00200293          	li	t0,2
 5e4:	fe5212e3          	bne	tp,t0,5c8 <.L123>
 5e8:	00300393          	li	t2,3
 5ec:	02000193          	li	gp,32
 5f0:	08771463          	bne	a4,t2,678 <fail>

000005f4 <test_33>:
 5f4:	00000213          	li	tp,0

000005f8 <.L124>:
 5f8:	00b00113          	li	sp,11
 5fc:	00000013          	nop
 600:	00000013          	nop
 604:	00f00093          	li	ra,15
 608:	40208733          	sub	a4,ra,sp
 60c:	00120213          	addi	tp,tp,1 # 1 <_start-0x3b>
 610:	00200293          	li	t0,2
 614:	fe5212e3          	bne	tp,t0,5f8 <.L124>
 618:	00400393          	li	t2,4
 61c:	02100193          	li	gp,33
 620:	04771c63          	bne	a4,t2,678 <fail>

00000624 <test_34>:
 624:	ff100093          	li	ra,-15
 628:	40100133          	neg	sp,ra
 62c:	00f00393          	li	t2,15
 630:	02200193          	li	gp,34
 634:	04711263          	bne	sp,t2,678 <fail>

00000638 <test_35>:
 638:	02000093          	li	ra,32
 63c:	40008133          	sub	sp,ra,zero
 640:	02000393          	li	t2,32
 644:	02300193          	li	gp,35
 648:	02711863          	bne	sp,t2,678 <fail>

0000064c <test_36>:
 64c:	400000b3          	neg	ra,zero
 650:	00000393          	li	t2,0
 654:	02400193          	li	gp,36
 658:	02709063          	bne	ra,t2,678 <fail>

0000065c <test_37>:
 65c:	01000093          	li	ra,16
 660:	01e00113          	li	sp,30
 664:	40208033          	sub	zero,ra,sp
 668:	00000393          	li	t2,0
 66c:	02500193          	li	gp,37
 670:	00701463          	bne	zero,t2,678 <fail>
 674:	02301063          	bne	zero,gp,694 <pass>

00000678 <fail>:
 678:	0ff0000f          	fence

0000067c <.L125>:
 67c:	00018063          	beqz	gp,67c <.L125>
 680:	00119193          	slli	gp,gp,0x1
 684:	0011e193          	ori	gp,gp,1
 688:	05d00893          	li	a7,93
 68c:	00018513          	mv	a0,gp
 690:	00000073          	ecall

00000694 <pass>:
 694:	0ff0000f          	fence
 698:	00100193          	li	gp,1
 69c:	05d00893          	li	a7,93
 6a0:	00000513          	li	a0,0
 6a4:	00000073          	ecall
 6a8:	c0001073          	unimp
	...
